; Function Attrs: mustprogress uwtable
define hidden noundef zeroext i1 @_ZN4cvc58internal6theory22TheoryInferenceManager12propagateLitENS0_12NodeTemplateILb0EEE(ptr nocapture noundef nonnull readonly align 8 dereferenceable(256) %this, ptr nocapture noundef readonly %lit) unnamed_addr #3 align 2 personality ptr @__gxx_personality_v0 {
entry:
  %agg.tmp = alloca %"class.cvc5::internal::NodeTemplate.590", align 8
  %d_theoryState = getelementptr inbounds i8, ptr %this, i64 24
  %0 = load ptr, ptr %d_theoryState, align 8
  %vtable = load ptr, ptr %0, align 8
  %vfn = getelementptr inbounds i8, ptr %vtable, i64 72
  %1 = load ptr, ptr %vfn, align 8
  %call = tail call noundef zeroext i1 %1(ptr noundef nonnull align 8 dereferenceable(80) %0)
  br i1 %call, label %return, label %if.end

if.end:                                           ; preds = %entry
  %d_out = getelementptr inbounds i8, ptr %this, i64 32
  %2 = load ptr, ptr %d_out, align 8
  %3 = load ptr, ptr %lit, align 8
  store ptr %3, ptr %agg.tmp, align 8
  %vtable2 = load ptr, ptr %2, align 8
  %vfn3 = getelementptr inbounds i8, ptr %vtable2, i64 32
  %4 = load ptr, ptr %vfn3, align 8
  %call4 = call noundef zeroext i1 %4(ptr noundef nonnull align 8 dereferenceable(100) %2, ptr noundef nonnull %agg.tmp)
  br i1 %call4, label %return, label %if.then5

if.then5:                                         ; preds = %if.end
  %5 = load ptr, ptr %d_theoryState, align 8
  %vtable7 = load ptr, ptr %5, align 8
  %vfn8 = getelementptr inbounds i8, ptr %vtable7, i64 64
  %6 = load ptr, ptr %vfn8, align 8
  call void %6(ptr noundef nonnull align 8 dereferenceable(80) %5)
  br label %return

return:                                           ; preds = %if.end, %if.then5, %entry
  %retval.0 = phi i1 [ false, %entry ], [ false, %if.then5 ], [ true, %if.end ]
  ret i1 %retval.0
}